; ModuleID = '46/619.c'
source_filename = "46/619.c"
target datalayout = "e-m:e-p270:32:32-p271:32:32-p272:64:64-i64:64-f80:128-n8:16:32:64-S128"
target triple = "x86_64-pc-linux-gnu"

@.str = private unnamed_addr constant [5 x i8] c"%d%d\00", align 1
@.str.1 = private unnamed_addr constant [3 x i8] c"%d\00", align 1
@.str.2 = private unnamed_addr constant [4 x i8] c"%d\0A\00", align 1

; Function Attrs: noinline nounwind uwtable
define dso_local void @main() #0 {
  %1 = alloca i32, align 4
  %2 = alloca i32, align 4
  %3 = alloca i32, align 4
  %4 = alloca i32, align 4
  %5 = alloca i32, align 4
  %6 = alloca [100 x [100 x i32]], align 16
  %7 = call i32 (i8*, ...) @__isoc99_scanf(i8* getelementptr inbounds ([5 x i8], [5 x i8]* @.str, i64 0, i64 0), i32* %3, i32* %4)
  store i32 0, i32* %1, align 4
  br label %8

8:                                                ; preds = %29, %0
  %9 = load i32, i32* %1, align 4
  %10 = load i32, i32* %3, align 4
  %11 = icmp slt i32 %9, %10
  br i1 %11, label %12, label %32

12:                                               ; preds = %8
  store i32 0, i32* %2, align 4
  br label %13

13:                                               ; preds = %25, %12
  %14 = load i32, i32* %2, align 4
  %15 = load i32, i32* %4, align 4
  %16 = icmp slt i32 %14, %15
  br i1 %16, label %17, label %28

17:                                               ; preds = %13
  %18 = load i32, i32* %1, align 4
  %19 = sext i32 %18 to i64
  %20 = getelementptr inbounds [100 x [100 x i32]], [100 x [100 x i32]]* %6, i64 0, i64 %19
  %21 = load i32, i32* %2, align 4
  %22 = sext i32 %21 to i64
  %23 = getelementptr inbounds [100 x i32], [100 x i32]* %20, i64 0, i64 %22
  %24 = call i32 (i8*, ...) @__isoc99_scanf(i8* getelementptr inbounds ([3 x i8], [3 x i8]* @.str.1, i64 0, i64 0), i32* %23)
  br label %25

25:                                               ; preds = %17
  %26 = load i32, i32* %2, align 4
  %27 = add nsw i32 %26, 1
  store i32 %27, i32* %2, align 4
  br label %13

28:                                               ; preds = %13
  br label %29

29:                                               ; preds = %28
  %30 = load i32, i32* %1, align 4
  %31 = add nsw i32 %30, 1
  store i32 %31, i32* %1, align 4
  br label %8

32:                                               ; preds = %8
  store i32 0, i32* %1, align 4
  store i32 0, i32* %2, align 4
  br label %33

33:                                               ; preds = %154, %32
  %34 = load i32, i32* %2, align 4
  %35 = load i32, i32* %4, align 4
  %36 = load i32, i32* %2, align 4
  %37 = sub nsw i32 %35, %36
  %38 = icmp slt i32 %34, %37
  br i1 %38, label %39, label %45

39:                                               ; preds = %33
  %40 = load i32, i32* %1, align 4
  %41 = load i32, i32* %3, align 4
  %42 = load i32, i32* %1, align 4
  %43 = sub nsw i32 %41, %42
  %44 = icmp slt i32 %40, %43
  br label %45

45:                                               ; preds = %39, %33
  %46 = phi i1 [ false, %33 ], [ %44, %39 ]
  br i1 %46, label %47, label %159

47:                                               ; preds = %45
  %48 = load i32, i32* %2, align 4
  store i32 %48, i32* %5, align 4
  br label %49

49:                                               ; preds = %64, %47
  %50 = load i32, i32* %5, align 4
  %51 = load i32, i32* %4, align 4
  %52 = load i32, i32* %2, align 4
  %53 = sub nsw i32 %51, %52
  %54 = icmp slt i32 %50, %53
  br i1 %54, label %55, label %67

55:                                               ; preds = %49
  %56 = load i32, i32* %1, align 4
  %57 = sext i32 %56 to i64
  %58 = getelementptr inbounds [100 x [100 x i32]], [100 x [100 x i32]]* %6, i64 0, i64 %57
  %59 = load i32, i32* %5, align 4
  %60 = sext i32 %59 to i64
  %61 = getelementptr inbounds [100 x i32], [100 x i32]* %58, i64 0, i64 %60
  %62 = load i32, i32* %61, align 4
  %63 = call i32 (i8*, ...) @printf(i8* getelementptr inbounds ([4 x i8], [4 x i8]* @.str.2, i64 0, i64 0), i32 %62)
  br label %64

64:                                               ; preds = %55
  %65 = load i32, i32* %5, align 4
  %66 = add nsw i32 %65, 1
  store i32 %66, i32* %5, align 4
  br label %49

67:                                               ; preds = %49
  %68 = load i32, i32* %1, align 4
  %69 = add nsw i32 %68, 1
  store i32 %69, i32* %5, align 4
  br label %70

70:                                               ; preds = %88, %67
  %71 = load i32, i32* %5, align 4
  %72 = load i32, i32* %3, align 4
  %73 = load i32, i32* %1, align 4
  %74 = sub nsw i32 %72, %73
  %75 = icmp slt i32 %71, %74
  br i1 %75, label %76, label %91

76:                                               ; preds = %70
  %77 = load i32, i32* %5, align 4
  %78 = sext i32 %77 to i64
  %79 = getelementptr inbounds [100 x [100 x i32]], [100 x [100 x i32]]* %6, i64 0, i64 %78
  %80 = load i32, i32* %4, align 4
  %81 = sub nsw i32 %80, 1
  %82 = load i32, i32* %2, align 4
  %83 = sub nsw i32 %81, %82
  %84 = sext i32 %83 to i64
  %85 = getelementptr inbounds [100 x i32], [100 x i32]* %79, i64 0, i64 %84
  %86 = load i32, i32* %85, align 4
  %87 = call i32 (i8*, ...) @printf(i8* getelementptr inbounds ([4 x i8], [4 x i8]* @.str.2, i64 0, i64 0), i32 %86)
  br label %88

88:                                               ; preds = %76
  %89 = load i32, i32* %5, align 4
  %90 = add nsw i32 %89, 1
  store i32 %90, i32* %5, align 4
  br label %70

91:                                               ; preds = %70
  %92 = load i32, i32* %1, align 4
  %93 = add nsw i32 %92, 1
  %94 = load i32, i32* %3, align 4
  %95 = load i32, i32* %1, align 4
  %96 = sub nsw i32 %94, %95
  %97 = icmp slt i32 %93, %96
  br i1 %97, label %98, label %123

98:                                               ; preds = %91
  %99 = load i32, i32* %4, align 4
  %100 = load i32, i32* %2, align 4
  %101 = sub nsw i32 %99, %100
  %102 = sub nsw i32 %101, 2
  store i32 %102, i32* %5, align 4
  br label %103

103:                                              ; preds = %119, %98
  %104 = load i32, i32* %5, align 4
  %105 = load i32, i32* %2, align 4
  %106 = icmp sge i32 %104, %105
  br i1 %106, label %107, label %122

107:                                              ; preds = %103
  %108 = load i32, i32* %3, align 4
  %109 = load i32, i32* %1, align 4
  %110 = sub nsw i32 %108, %109
  %111 = sub nsw i32 %110, 1
  %112 = sext i32 %111 to i64
  %113 = getelementptr inbounds [100 x [100 x i32]], [100 x [100 x i32]]* %6, i64 0, i64 %112
  %114 = load i32, i32* %5, align 4
  %115 = sext i32 %114 to i64
  %116 = getelementptr inbounds [100 x i32], [100 x i32]* %113, i64 0, i64 %115
  %117 = load i32, i32* %116, align 4
  %118 = call i32 (i8*, ...) @printf(i8* getelementptr inbounds ([4 x i8], [4 x i8]* @.str.2, i64 0, i64 0), i32 %117)
  br label %119

119:                                              ; preds = %107
  %120 = load i32, i32* %5, align 4
  %121 = add nsw i32 %120, -1
  store i32 %121, i32* %5, align 4
  br label %103

122:                                              ; preds = %103
  br label %123

123:                                              ; preds = %122, %91
  %124 = load i32, i32* %2, align 4
  %125 = add nsw i32 %124, 1
  %126 = load i32, i32* %4, align 4
  %127 = load i32, i32* %2, align 4
  %128 = sub nsw i32 %126, %127
  %129 = icmp slt i32 %125, %128
  br i1 %129, label %130, label %153

130:                                              ; preds = %123
  %131 = load i32, i32* %3, align 4
  %132 = load i32, i32* %1, align 4
  %133 = sub nsw i32 %131, %132
  %134 = sub nsw i32 %133, 2
  store i32 %134, i32* %5, align 4
  br label %135

135:                                              ; preds = %149, %130
  %136 = load i32, i32* %5, align 4
  %137 = load i32, i32* %1, align 4
  %138 = add nsw i32 %137, 1
  %139 = icmp sge i32 %136, %138
  br i1 %139, label %140, label %152

140:                                              ; preds = %135
  %141 = load i32, i32* %5, align 4
  %142 = sext i32 %141 to i64
  %143 = getelementptr inbounds [100 x [100 x i32]], [100 x [100 x i32]]* %6, i64 0, i64 %142
  %144 = load i32, i32* %2, align 4
  %145 = sext i32 %144 to i64
  %146 = getelementptr inbounds [100 x i32], [100 x i32]* %143, i64 0, i64 %145
  %147 = load i32, i32* %146, align 4
  %148 = call i32 (i8*, ...) @printf(i8* getelementptr inbounds ([4 x i8], [4 x i8]* @.str.2, i64 0, i64 0), i32 %147)
  br label %149

149:                                              ; preds = %140
  %150 = load i32, i32* %5, align 4
  %151 = add nsw i32 %150, -1
  store i32 %151, i32* %5, align 4
  br label %135

152:                                              ; preds = %135
  br label %153

153:                                              ; preds = %152, %123
  br label %154

154:                                              ; preds = %153
  %155 = load i32, i32* %1, align 4
  %156 = add nsw i32 %155, 1
  store i32 %156, i32* %1, align 4
  %157 = load i32, i32* %2, align 4
  %158 = add nsw i32 %157, 1
  store i32 %158, i32* %2, align 4
  br label %33

159:                                              ; preds = %45
  ret void
}

declare dso_local i32 @__isoc99_scanf(i8*, ...) #1

declare dso_local i32 @printf(i8*, ...) #1


!llvm.module.flags = !{!0}
!llvm.ident = !{!1}

!0 = !{i32 1, !"wchar_size", i32 4}
!1 = !{!"clang version 10.0.0-4ubuntu1 "}
